target datalayout = "e-m:e-p270:32:32-p271:32:32-p272:64:64-i64:64-i128:128-f80:128-n8:16:32:64-S128"
target triple = "x86_64-pc-linux-gnu"

@.str.19 = private unnamed_addr constant [26 x i8] c"\0AFinal Run Statistics: \0A\0A\00", align 1
@.str.20 = private unnamed_addr constant [42 x i8] c"Number of steps                    = %ld\0A\00", align 1
@.str.21 = private unnamed_addr constant [42 x i8] c"Number of residual evaluations     = %ld\0A\00", align 1
@.str.22 = private unnamed_addr constant [42 x i8] c"Number of Jacobian evaluations     = %ld\0A\00", align 1
@.str.23 = private unnamed_addr constant [42 x i8] c"Number of nonlinear iterations     = %ld\0A\00", align 1
@.str.24 = private unnamed_addr constant [42 x i8] c"Number of error test failures      = %ld\0A\00", align 1
@.str.25 = private unnamed_addr constant [42 x i8] c"Number of nonlinear conv. failures = %ld\0A\00", align 1
@.str.26 = private unnamed_addr constant [42 x i8] c"Number of step solver failures     = %ld\0A\00", align 1

; Function Attrs: nounwind uwtable
define internal i32 @PrintFinalStats(ptr noundef %0) #0 {
  %2 = alloca ptr, align 8
  %3 = alloca i32, align 4
  %4 = alloca i64, align 8
  %5 = alloca i64, align 8
  %6 = alloca i64, align 8
  %7 = alloca i64, align 8
  %8 = alloca i64, align 8
  %9 = alloca i64, align 8
  %10 = alloca i64, align 8
  %11 = alloca i64, align 8
  store ptr %0, ptr %2, align 8, !tbaa !17
  call void @llvm.lifetime.start.p0(i64 4, ptr %3) #6
  call void @llvm.lifetime.start.p0(i64 8, ptr %4) #6
  call void @llvm.lifetime.start.p0(i64 8, ptr %5) #6
  call void @llvm.lifetime.start.p0(i64 8, ptr %6) #6
  call void @llvm.lifetime.start.p0(i64 8, ptr %7) #6
  call void @llvm.lifetime.start.p0(i64 8, ptr %8) #6
  call void @llvm.lifetime.start.p0(i64 8, ptr %9) #6
  call void @llvm.lifetime.start.p0(i64 8, ptr %10) #6
  call void @llvm.lifetime.start.p0(i64 8, ptr %11) #6
  %12 = load ptr, ptr %2, align 8, !tbaa !17
  %13 = call i32 @IDAGetNumSteps(ptr noundef %12, ptr noundef %4)
  store i32 %13, ptr %3, align 4, !tbaa !11
  %14 = load ptr, ptr %2, align 8, !tbaa !17
  %15 = call i32 @IDAGetNumResEvals(ptr noundef %14, ptr noundef %8)
  store i32 %15, ptr %3, align 4, !tbaa !11
  %16 = load ptr, ptr %2, align 8, !tbaa !17
  %17 = call i32 @IDAGetNumJacEvals(ptr noundef %16, ptr noundef %7)
  store i32 %17, ptr %3, align 4, !tbaa !11
  %18 = load ptr, ptr %2, align 8, !tbaa !17
  %19 = call i32 @IDAGetNumNonlinSolvIters(ptr noundef %18, ptr noundef %5)
  store i32 %19, ptr %3, align 4, !tbaa !11
  %20 = load ptr, ptr %2, align 8, !tbaa !17
  %21 = call i32 @IDAGetNumErrTestFails(ptr noundef %20, ptr noundef %10)
  store i32 %21, ptr %3, align 4, !tbaa !11
  %22 = load ptr, ptr %2, align 8, !tbaa !17
  %23 = call i32 @IDAGetNumNonlinSolvConvFails(ptr noundef %22, ptr noundef %6)
  store i32 %23, ptr %3, align 4, !tbaa !11
  %24 = load ptr, ptr %2, align 8, !tbaa !17
  %25 = call i32 @IDAGetNumStepSolveFails(ptr noundef %24, ptr noundef %11)
  store i32 %25, ptr %3, align 4, !tbaa !11
  %26 = load ptr, ptr %2, align 8, !tbaa !17
  %27 = call i32 @IDAGetNumLinResEvals(ptr noundef %26, ptr noundef %9)
  store i32 %27, ptr %3, align 4, !tbaa !11
  %28 = call i32 (ptr, ...) @printf(ptr noundef @.str.19)
  %29 = load i64, ptr %4, align 8, !tbaa !42
  %30 = call i32 (ptr, ...) @printf(ptr noundef @.str.20, i64 noundef %29)
  %31 = load i64, ptr %8, align 8, !tbaa !42
  %32 = load i64, ptr %9, align 8, !tbaa !42
  %33 = add nsw i64 %31, %32
  %34 = call i32 (ptr, ...) @printf(ptr noundef @.str.21, i64 noundef %33)
  %35 = load i64, ptr %7, align 8, !tbaa !42
  %36 = call i32 (ptr, ...) @printf(ptr noundef @.str.22, i64 noundef %35)
  %37 = load i64, ptr %5, align 8, !tbaa !42
  %38 = call i32 (ptr, ...) @printf(ptr noundef @.str.23, i64 noundef %37)
  %39 = load i64, ptr %10, align 8, !tbaa !42
  %40 = call i32 (ptr, ...) @printf(ptr noundef @.str.24, i64 noundef %39)
  %41 = load i64, ptr %6, align 8, !tbaa !42
  %42 = call i32 (ptr, ...) @printf(ptr noundef @.str.25, i64 noundef %41)
  %43 = load i64, ptr %11, align 8, !tbaa !42
  %44 = call i32 (ptr, ...) @printf(ptr noundef @.str.26, i64 noundef %43)
  %45 = load i32, ptr %3, align 4, !tbaa !11
  call void @llvm.lifetime.end.p0(i64 8, ptr %11) #6
  call void @llvm.lifetime.end.p0(i64 8, ptr %10) #6
  call void @llvm.lifetime.end.p0(i64 8, ptr %9) #6
  call void @llvm.lifetime.end.p0(i64 8, ptr %8) #6
  call void @llvm.lifetime.end.p0(i64 8, ptr %7) #6
  call void @llvm.lifetime.end.p0(i64 8, ptr %6) #6
  call void @llvm.lifetime.end.p0(i64 8, ptr %5) #6
  call void @llvm.lifetime.end.p0(i64 8, ptr %4) #6
  call void @llvm.lifetime.end.p0(i64 4, ptr %3) #6
  ret i32 %45
}